; Function Attrs: mustprogress uwtable
define hidden void @_ZN4cvc56parser6Parser15initializeInputERKNSt7__cxx1112basic_stringIcSt11char_traitsIcESaIcEEE(ptr nocapture noundef nonnull align 8 dereferenceable(41) %this, ptr noundef nonnull align 8 dereferenceable(32) %name) local_unnamed_addr #4 align 2 {
entry:
  %d_done = getelementptr inbounds i8, ptr %this, i64 40
  store i8 0, ptr %d_done, align 8
  %d_lex = getelementptr inbounds i8, ptr %this, i64 24
  %0 = load ptr, ptr %d_lex, align 8
  %d_flexInput = getelementptr inbounds i8, ptr %this, i64 32
  %1 = load ptr, ptr %d_flexInput, align 8
  %vtable = load ptr, ptr %0, align 8
  %vfn = getelementptr inbounds i8, ptr %vtable, i64 16
  %2 = load ptr, ptr %vfn, align 8
  tail call void %2(ptr noundef nonnull align 8 dereferenceable(32892) %0, ptr noundef %1, ptr noundef nonnull align 8 dereferenceable(32) %name)
  ret void
}